(dp1
S'output'
p2
S"<type 'exceptions.AttributeError'> 'Set' object has no attribute 'update_record'"
p3
sS'layer'
p4
S'/home/rif/Downloads/web2py/applications/trade/controllers/default.py'
p5
sS'code'
p6
S' # -*- coding: utf-8 -*-\n# this file is released under public domain and you can use without limitations\n\nfrom trade_checker import trade_checker\n\ndef index():\n    form = SQLFORM(Trade)\n    if form.process().accepted:\n        if trade_checker(form.vars, db(PortofolioRule).select()):\n            db(Trade.id==form.vars.id).update_record(compliant=True)\n            session.flash = \'trade inserted\'\n            redirect(\'good_boy\')\n        else:\n            session.flash = \'trade rejected\'\n            redirect(\'bad_boy\')\n    return dict(form=form)\n\ndef good_boy():\n    return dict()\n\ndef bad_boy():\n    return dict()\n\ndef user():\n    """\n    exposes:\n    http://..../[app]/default/user/login\n    http://..../[app]/default/user/logout\n    http://..../[app]/default/user/register\n    http://..../[app]/default/user/profile\n    http://..../[app]/default/user/retrieve_password\n    http://..../[app]/default/user/change_password\n    http://..../[app]/default/user/manage_users (requires membership in\n    use @auth.requires_login()\n        @auth.requires_membership(\'group name\')\n        @auth.requires_permission(\'read\',\'table name\',record_id)\n    to decorate functions that need access control\n    """\n    return dict(form=auth())\n\n\n@cache.action()\ndef download():\n    """\n    allows downloading of uploaded files\n    http://..../[app]/default/download/[filename]\n    """\n    return response.download(request, db)\n\n\ndef call():\n    """\n    exposes services. for example:\n    http://..../[app]/default/call/jsonrpc\n    decorate with @services.jsonrpc the functions to expose\n    supports xml, json, xmlrpc, jsonrpc, amfrpc, rss, csv\n    """\n    return service()\n\n\n@auth.requires_login() \ndef api():\n    """\n    this is example of API with access control\n    WEB2PY provides Hypermedia API (Collection+JSON) Experimental\n    """\n    from gluon.contrib.hypermedia import Collection\n    rules = {\n        \'<tablename>\': {\'GET\':{},\'POST\':{},\'PUT\':{},\'DELETE\':{}},\n        }\n    return Collection(db).process(request,response,rules)\n\nresponse._vars=response._caller(index)\n'
p7
sS'snapshot'
p8
(dp9
sS'traceback'
p10
S'Traceback (most recent call last):\n  File "/home/rif/Downloads/web2py/gluon/restricted.py", line 224, in restricted\n    exec ccode in environment\n  File "/home/rif/Downloads/web2py/applications/trade/controllers/default.py", line 73, in <module>\n  File "/home/rif/Downloads/web2py/gluon/globals.py", line 392, in <lambda>\n    self._caller = lambda f: f()\n  File "/home/rif/Downloads/web2py/applications/trade/controllers/default.py", line 10, in index\n    db(Trade.id==form.vars.id).update_record(compliant=True)\nAttributeError: \'Set\' object has no attribute \'update_record\'\n'
p11
s.